target datalayout = "e-m:e-p270:32:32-p271:32:32-p272:64:64-i64:64-i128:128-f80:128-n8:16:32:64-S128"
target triple = "x86_64-unknown-linux-gnu"

%class.dl_graph = type { %"struct.dl_graph<smt::theory_special_relations::int_ext>::stats", %class.vector.1, %class.vector.2, %class.vector.3, %class.vector.4, %class.vector.4, %class.svector.5, %class.vector.1, %class.svector.7, %class.svector.9, %class.svector.9, %class.heap, i32, i32, %class.svector.9, %class.svector.7, %class.svector.9, %class.svector.9, %class.svector.9, i32, i32, %class.svector.11, %class.svector.9, i32, i32, %class.svector.9, %class.svector.9, %class.svector.9, %class.svector.9, %"struct.dl_graph<smt::theory_special_relations::int_ext>::dfs_state", %"struct.dl_graph<smt::theory_special_relations::int_ext>::dfs_state" }
%"struct.dl_graph<smt::theory_special_relations::int_ext>::stats" = type { i32, i32, i32, i32, i32 }
%class.vector.2 = type { ptr }
%class.vector.3 = type { ptr }
%class.vector.4 = type { ptr }
%class.svector.5 = type { %class.vector.6 }
%class.vector.6 = type { ptr }
%class.vector.1 = type { ptr }
%class.heap = type { %class.dl_var_lt, %class.svector.9, %class.svector.9 }
%class.dl_var_lt = type { ptr }
%class.svector.7 = type { %class.vector.8 }
%class.vector.8 = type { ptr }
%class.svector.11 = type { %class.vector.12 }
%class.vector.12 = type { ptr }
%class.svector.9 = type { %class.vector.10 }
%class.vector.10 = type { ptr }
%"struct.dl_graph<smt::theory_special_relations::int_ext>::dfs_state" = type <{ %class.vector.1, %class.svector.9, %class.svector.9, %class.heap.13, i32, [4 x i8] }>
%class.heap.13 = type { %"class.dl_graph<smt::theory_special_relations::int_ext>::dfs_state::hp_lt", %class.svector.9, %class.svector.9 }
%"class.dl_graph<smt::theory_special_relations::int_ext>::dfs_state::hp_lt" = type { ptr, ptr }
%class.svector.16 = type { %class.vector.17 }
%class.vector.17 = type { ptr }
%class.s_integer = type { i32 }
%class.dl_edge = type <{ i32, i32, %class.s_integer, i32, %class.svector.16, i8, [7 x i8] }>

; Function Attrs: mustprogress nounwind uwtable
define linkonce_odr hidden noundef i32 @_ZNK7dl_edgeIN3smt24theory_special_relations7int_extEE10get_targetEv(ptr noundef nonnull align 8 dereferenceable(25) %this) #4 comdat align 2 {
entry:
  %this.addr = alloca ptr, align 8
  store ptr %this, ptr %this.addr, align 8
  %this1 = load ptr, ptr %this.addr, align 8
  %m_target = getelementptr inbounds %class.dl_edge, ptr %this1, i32 0, i32 1
  %0 = load i32, ptr %m_target, align 4
  ret i32 %0
}

; Function Attrs: mustprogress nounwind uwtable
define linkonce_odr hidden noundef nonnull align 4 dereferenceable(4) ptr @_ZN9s_integermIERKS_(ptr noundef nonnull align 4 dereferenceable(4) %this, ptr noundef nonnull align 4 dereferenceable(4) %r) #4 comdat align 2 {
entry:
  %this.addr = alloca ptr, align 8
  %r.addr = alloca ptr, align 8
  store ptr %this, ptr %this.addr, align 8
  store ptr %r, ptr %r.addr, align 8
  %this1 = load ptr, ptr %this.addr, align 8
  %0 = load ptr, ptr %r.addr, align 8
  %m_val = getelementptr inbounds %class.s_integer, ptr %0, i32 0, i32 0
  %1 = load i32, ptr %m_val, align 4
  %m_val2 = getelementptr inbounds %class.s_integer, ptr %this1, i32 0, i32 0
  %2 = load i32, ptr %m_val2, align 4
  %sub = sub nsw i32 %2, %1
  store i32 %sub, ptr %m_val2, align 4
  ret ptr %this1
}

; Function Attrs: mustprogress nounwind uwtable
define linkonce_odr hidden noundef nonnull align 4 dereferenceable(4) ptr @_ZNK6vectorI9s_integerLb1EjEixEj(ptr noundef nonnull align 8 dereferenceable(8) %this, i32 noundef %idx) #4 comdat align 2 {
entry:
  %this.addr = alloca ptr, align 8
  %idx.addr = alloca i32, align 4
  store ptr %this, ptr %this.addr, align 8
  store i32 %idx, ptr %idx.addr, align 4
  %this1 = load ptr, ptr %this.addr, align 8
  %m_data = getelementptr inbounds %class.vector.1, ptr %this1, i32 0, i32 0
  %0 = load ptr, ptr %m_data, align 8
  %1 = load i32, ptr %idx.addr, align 4
  %idxprom = zext i32 %1 to i64
  %arrayidx = getelementptr inbounds %class.s_integer, ptr %0, i64 %idxprom
  ret ptr %arrayidx
}

; Function Attrs: mustprogress nounwind uwtable
define linkonce_odr hidden noundef i32 @_ZNK7dl_edgeIN3smt24theory_special_relations7int_extEE10get_sourceEv(ptr noundef nonnull align 8 dereferenceable(25) %this) #4 comdat align 2 {
entry:
  %this.addr = alloca ptr, align 8
  store ptr %this, ptr %this.addr, align 8
  %this1 = load ptr, ptr %this.addr, align 8
  %m_source = getelementptr inbounds %class.dl_edge, ptr %this1, i32 0, i32 0
  %0 = load i32, ptr %m_source, align 8
  ret i32 %0
}

; Function Attrs: mustprogress nounwind uwtable
define linkonce_odr hidden noundef zeroext i1 @_ZNK7dl_edgeIN3smt24theory_special_relations7int_extEE10is_enabledEv(ptr noundef nonnull align 8 dereferenceable(25) %this) #4 comdat align 2 {
entry:
  %this.addr = alloca ptr, align 8
  store ptr %this, ptr %this.addr, align 8
  %this1 = load ptr, ptr %this.addr, align 8
  %m_enabled = getelementptr inbounds %class.dl_edge, ptr %this1, i32 0, i32 5
  %0 = load i8, ptr %m_enabled, align 8
  %tobool = trunc i8 %0 to i1
  ret i1 %tobool
}

; Function Attrs: mustprogress nounwind uwtable
define linkonce_odr hidden noundef nonnull align 4 dereferenceable(4) ptr @_ZNK7dl_edgeIN3smt24theory_special_relations7int_extEE10get_weightEv(ptr noundef nonnull align 8 dereferenceable(25) %this) #4 comdat align 2 {
entry:
  %this.addr = alloca ptr, align 8
  store ptr %this, ptr %this.addr, align 8
  %this1 = load ptr, ptr %this.addr, align 8
  %m_weight = getelementptr inbounds %class.dl_edge, ptr %this1, i32 0, i32 2
  ret ptr %m_weight
}

; Function Attrs: mustprogress nounwind uwtable
define linkonce_odr hidden noundef nonnull align 8 dereferenceable(25) ptr @_ZNK6vectorI7dl_edgeIN3smt24theory_special_relations7int_extEELb1EjEixEj(ptr noundef nonnull align 8 dereferenceable(8) %this, i32 noundef %idx) #4 comdat align 2 {
entry:
  %this.addr = alloca ptr, align 8
  %idx.addr = alloca i32, align 4
  store ptr %this, ptr %this.addr, align 8
  store i32 %idx, ptr %idx.addr, align 4
  %this1 = load ptr, ptr %this.addr, align 8
  %m_data = getelementptr inbounds %class.vector.3, ptr %this1, i32 0, i32 0
  %0 = load ptr, ptr %m_data, align 8
  %1 = load i32, ptr %idx.addr, align 4
  %idxprom = zext i32 %1 to i64
  %arrayidx = getelementptr inbounds %class.dl_edge, ptr %0, i64 %idxprom
  ret ptr %arrayidx
}

; Function Attrs: mustprogress nounwind uwtable
define linkonce_odr hidden noundef zeroext i1 @_ZeqRK9s_integerS1_(ptr noundef nonnull align 4 dereferenceable(4) %r1, ptr noundef nonnull align 4 dereferenceable(4) %r2) #4 comdat {
entry:
  %r1.addr = alloca ptr, align 8
  %r2.addr = alloca ptr, align 8
  store ptr %r1, ptr %r1.addr, align 8
  store ptr %r2, ptr %r2.addr, align 8
  %0 = load ptr, ptr %r1.addr, align 8
  %m_val = getelementptr inbounds %class.s_integer, ptr %0, i32 0, i32 0
  %1 = load i32, ptr %m_val, align 4
  %2 = load ptr, ptr %r2.addr, align 8
  %m_val1 = getelementptr inbounds %class.s_integer, ptr %2, i32 0, i32 0
  %3 = load i32, ptr %m_val1, align 4
  %cmp = icmp eq i32 %1, %3
  ret i1 %cmp
}

; Function Attrs: mustprogress nounwind uwtable
define linkonce_odr hidden noundef i32 @_ZNK8dl_graphIN3smt24theory_special_relations7int_extEE10get_targetEi(ptr noundef nonnull align 8 dereferenceable(368) %this, i32 noundef %id) #4 comdat align 2 {
entry:
  %this.addr = alloca ptr, align 8
  %id.addr = alloca i32, align 4
  store ptr %this, ptr %this.addr, align 8
  store i32 %id, ptr %id.addr, align 4
  %this1 = load ptr, ptr %this.addr, align 8
  %m_edges = getelementptr inbounds %class.dl_graph, ptr %this1, i32 0, i32 3
  %0 = load i32, ptr %id.addr, align 4
  %call = call noundef nonnull align 8 dereferenceable(25) ptr @_ZNK6vectorI7dl_edgeIN3smt24theory_special_relations7int_extEELb1EjEixEj(ptr noundef nonnull align 8 dereferenceable(8) %m_edges, i32 noundef %0)
  %call2 = call noundef i32 @_ZNK7dl_edgeIN3smt24theory_special_relations7int_extEE10get_targetEv(ptr noundef nonnull align 8 dereferenceable(25) %call)
  ret i32 %call2
}

; Function Attrs: mustprogress uwtable
define linkonce_odr hidden i32 @_ZmiRK9s_integerS1_(ptr noundef nonnull align 4 dereferenceable(4) %r1, ptr noundef nonnull align 4 dereferenceable(4) %r2) #5 comdat {
entry:
  %retval = alloca %class.s_integer, align 4
  %r1.addr = alloca ptr, align 8
  %r2.addr = alloca ptr, align 8
  %ref.tmp = alloca %class.s_integer, align 4
  store ptr %r1, ptr %r1.addr, align 8
  store ptr %r2, ptr %r2.addr, align 8
  %0 = load ptr, ptr %r2.addr, align 8
  %1 = load ptr, ptr %r1.addr, align 8
  call void @llvm.memcpy.p0.p0.i64(ptr align 4 %ref.tmp, ptr align 4 %1, i64 4, i1 false)
  %call = call noundef nonnull align 4 dereferenceable(4) ptr @_ZN9s_integermIERKS_(ptr noundef nonnull align 4 dereferenceable(4) %ref.tmp, ptr noundef nonnull align 4 dereferenceable(4) %0)
  call void @llvm.memcpy.p0.p0.i64(ptr align 4 %retval, ptr align 4 %call, i64 4, i1 false)
  %coerce.dive = getelementptr inbounds %class.s_integer, ptr %retval, i32 0, i32 0
  %2 = load i32, ptr %coerce.dive, align 4
  ret i32 %2
}

; Function Attrs: mustprogress nounwind uwtable
define linkonce_odr hidden i32 @_ZNK8dl_graphIN3smt24theory_special_relations7int_extEE14get_assignmentEi(ptr noundef nonnull align 8 dereferenceable(368) %this, i32 noundef %v) #4 comdat align 2 {
entry:
  %retval = alloca %class.s_integer, align 4
  %this.addr = alloca ptr, align 8
  %v.addr = alloca i32, align 4
  store ptr %this, ptr %this.addr, align 8
  store i32 %v, ptr %v.addr, align 4
  %this1 = load ptr, ptr %this.addr, align 8
  %m_assignment = getelementptr inbounds %class.dl_graph, ptr %this1, i32 0, i32 1
  %0 = load i32, ptr %v.addr, align 4
  %call = call noundef nonnull align 4 dereferenceable(4) ptr @_ZNK6vectorI9s_integerLb1EjEixEj(ptr noundef nonnull align 8 dereferenceable(8) %m_assignment, i32 noundef %0)
  call void @llvm.memcpy.p0.p0.i64(ptr align 4 %retval, ptr align 4 %call, i64 4, i1 false)
  %coerce.dive = getelementptr inbounds %class.s_integer, ptr %retval, i32 0, i32 0
  %1 = load i32, ptr %coerce.dive, align 4
  ret i32 %1
}

; Function Attrs: mustprogress nounwind uwtable
define linkonce_odr hidden noundef i32 @_ZNK8dl_graphIN3smt24theory_special_relations7int_extEE10get_sourceEi(ptr noundef nonnull align 8 dereferenceable(368) %this, i32 noundef %id) #4 comdat align 2 {
entry:
  %this.addr = alloca ptr, align 8
  %id.addr = alloca i32, align 4
  store ptr %this, ptr %this.addr, align 8
  store i32 %id, ptr %id.addr, align 4
  %this1 = load ptr, ptr %this.addr, align 8
  %m_edges = getelementptr inbounds %class.dl_graph, ptr %this1, i32 0, i32 3
  %0 = load i32, ptr %id.addr, align 4
  %call = call noundef nonnull align 8 dereferenceable(25) ptr @_ZNK6vectorI7dl_edgeIN3smt24theory_special_relations7int_extEELb1EjEixEj(ptr noundef nonnull align 8 dereferenceable(8) %m_edges, i32 noundef %0)
  %call2 = call noundef i32 @_ZNK7dl_edgeIN3smt24theory_special_relations7int_extEE10get_sourceEv(ptr noundef nonnull align 8 dereferenceable(25) %call)
  ret i32 %call2
}

; Function Attrs: mustprogress uwtable
define linkonce_odr hidden noundef zeroext i1 @_ZNK8dl_graphIN3smt24theory_special_relations7int_extEE10is_enabledEi(ptr noundef nonnull align 8 dereferenceable(368) %this, i32 noundef %id) #5 comdat align 2 {
entry:
  %this.addr = alloca ptr, align 8
  %id.addr = alloca i32, align 4
  store ptr %this, ptr %this.addr, align 8
  store i32 %id, ptr %id.addr, align 4
  %this1 = load ptr, ptr %this.addr, align 8
  %m_edges = getelementptr inbounds %class.dl_graph, ptr %this1, i32 0, i32 3
  %0 = load i32, ptr %id.addr, align 4
  %call = call noundef nonnull align 8 dereferenceable(25) ptr @_ZNK6vectorI7dl_edgeIN3smt24theory_special_relations7int_extEELb1EjEixEj(ptr noundef nonnull align 8 dereferenceable(8) %m_edges, i32 noundef %0)
  %call2 = call noundef zeroext i1 @_ZNK7dl_edgeIN3smt24theory_special_relations7int_extEE10is_enabledEv(ptr noundef nonnull align 8 dereferenceable(25) %call)
  ret i1 %call2
}

; Function Attrs: mustprogress uwtable
define linkonce_odr hidden noundef zeroext i1 @_ZneRK9s_integerS1_(ptr noundef nonnull align 4 dereferenceable(4) %r1, ptr noundef nonnull align 4 dereferenceable(4) %r2) #5 comdat {
entry:
  %r1.addr = alloca ptr, align 8
  %r2.addr = alloca ptr, align 8
  store ptr %r1, ptr %r1.addr, align 8
  store ptr %r2, ptr %r2.addr, align 8
  %0 = load ptr, ptr %r1.addr, align 8
  %1 = load ptr, ptr %r2.addr, align 8
  %call = call noundef zeroext i1 @_ZeqRK9s_integerS1_(ptr noundef nonnull align 4 dereferenceable(4) %0, ptr noundef nonnull align 4 dereferenceable(4) %1)
  %lnot = xor i1 %call, true
  ret i1 %lnot
}

; Function Attrs: mustprogress nounwind uwtable
define linkonce_odr hidden void @_ZN9s_integerC2Ei(ptr noundef nonnull align 4 dereferenceable(4) %this, i32 noundef %n) unnamed_addr #4 comdat align 2 {
entry:
  %this.addr = alloca ptr, align 8
  %n.addr = alloca i32, align 4
  store ptr %this, ptr %this.addr, align 8
  store i32 %n, ptr %n.addr, align 4
  %this1 = load ptr, ptr %this.addr, align 8
  %m_val = getelementptr inbounds %class.s_integer, ptr %this1, i32 0, i32 0
  %0 = load i32, ptr %n.addr, align 4
  store i32 %0, ptr %m_val, align 4
  ret void
}

; Function Attrs: mustprogress nounwind uwtable
define linkonce_odr hidden noundef nonnull align 4 dereferenceable(4) ptr @_ZNK8dl_graphIN3smt24theory_special_relations7int_extEE10get_weightEi(ptr noundef nonnull align 8 dereferenceable(368) %this, i32 noundef %id) #4 comdat align 2 {
entry:
  %this.addr = alloca ptr, align 8
  %id.addr = alloca i32, align 4
  store ptr %this, ptr %this.addr, align 8
  store i32 %id, ptr %id.addr, align 4
  %this1 = load ptr, ptr %this.addr, align 8
  %m_edges = getelementptr inbounds %class.dl_graph, ptr %this1, i32 0, i32 3
  %0 = load i32, ptr %id.addr, align 4
  %call = call noundef nonnull align 8 dereferenceable(25) ptr @_ZNK6vectorI7dl_edgeIN3smt24theory_special_relations7int_extEELb1EjEixEj(ptr noundef nonnull align 8 dereferenceable(8) %m_edges, i32 noundef %0)
  %call2 = call noundef nonnull align 4 dereferenceable(4) ptr @_ZNK7dl_edgeIN3smt24theory_special_relations7int_extEE10get_weightEv(ptr noundef nonnull align 8 dereferenceable(25) %call)
  ret ptr %call2
}

; Function Attrs: mustprogress uwtable
define hidden noundef zeroext i1 @_ZNK3smt24theory_special_relations17is_neighbour_edgeERKNS0_5graphEi(ptr noundef nonnull align 8 dereferenceable(145) %this, ptr noundef nonnull align 8 dereferenceable(368) %g, i32 noundef %edge) #5 align 2 {
entry:
  %this.addr = alloca ptr, align 8
  %g.addr = alloca ptr, align 8
  %edge.addr = alloca i32, align 4
  %ref.tmp = alloca %class.s_integer, align 4
  %ref.tmp2 = alloca %class.s_integer, align 4
  %ref.tmp5 = alloca %class.s_integer, align 4
  %ref.tmp8 = alloca %class.s_integer, align 4
  store ptr %this, ptr %this.addr, align 8
  store ptr %g, ptr %g.addr, align 8
  store i32 %edge, ptr %edge.addr, align 4
  %0 = load ptr, ptr %g.addr, align 8
  %1 = load i32, ptr %edge.addr, align 4
  %call = call noundef zeroext i1 @_ZNK8dl_graphIN3smt24theory_special_relations7int_extEE10is_enabledEi(ptr noundef nonnull align 8 dereferenceable(368) %0, i32 noundef %1)
  br i1 %call, label %land.rhs, label %land.end

land.rhs:                                         ; preds = %entry
  %2 = load ptr, ptr %g.addr, align 8
  %3 = load ptr, ptr %g.addr, align 8
  %4 = load i32, ptr %edge.addr, align 4
  %call3 = call noundef i32 @_ZNK8dl_graphIN3smt24theory_special_relations7int_extEE10get_sourceEi(ptr noundef nonnull align 8 dereferenceable(368) %3, i32 noundef %4)
  %call4 = call i32 @_ZNK8dl_graphIN3smt24theory_special_relations7int_extEE14get_assignmentEi(ptr noundef nonnull align 8 dereferenceable(368) %2, i32 noundef %call3)
  %coerce.dive = getelementptr inbounds %class.s_integer, ptr %ref.tmp2, i32 0, i32 0
  store i32 %call4, ptr %coerce.dive, align 4
  call void @_ZN9s_integerC2Ei(ptr noundef nonnull align 4 dereferenceable(4) %ref.tmp5, i32 noundef 1)
  %call6 = call i32 @_ZmiRK9s_integerS1_(ptr noundef nonnull align 4 dereferenceable(4) %ref.tmp2, ptr noundef nonnull align 4 dereferenceable(4) %ref.tmp5)
  %coerce.dive7 = getelementptr inbounds %class.s_integer, ptr %ref.tmp, i32 0, i32 0
  store i32 %call6, ptr %coerce.dive7, align 4
  %5 = load ptr, ptr %g.addr, align 8
  %6 = load ptr, ptr %g.addr, align 8
  %7 = load i32, ptr %edge.addr, align 4
  %call9 = call noundef i32 @_ZNK8dl_graphIN3smt24theory_special_relations7int_extEE10get_targetEi(ptr noundef nonnull align 8 dereferenceable(368) %6, i32 noundef %7)
  %call10 = call i32 @_ZNK8dl_graphIN3smt24theory_special_relations7int_extEE14get_assignmentEi(ptr noundef nonnull align 8 dereferenceable(368) %5, i32 noundef %call9)
  %coerce.dive11 = getelementptr inbounds %class.s_integer, ptr %ref.tmp8, i32 0, i32 0
  store i32 %call10, ptr %coerce.dive11, align 4
  %call12 = call noundef zeroext i1 @_ZeqRK9s_integerS1_(ptr noundef nonnull align 4 dereferenceable(4) %ref.tmp, ptr noundef nonnull align 4 dereferenceable(4) %ref.tmp8)
  br label %land.end

land.end:                                         ; preds = %land.rhs, %entry
  %8 = phi i1 [ false, %entry ], [ %call12, %land.rhs ]
  ret i1 %8
}

; Function Attrs: mustprogress uwtable
define hidden noundef zeroext i1 @_ZNK3smt24theory_special_relations24is_strict_neighbour_edgeERKNS0_5graphEi(ptr noundef nonnull align 8 dereferenceable(145) %this, ptr noundef nonnull align 8 dereferenceable(368) %g, i32 noundef %e) #5 align 2 {
entry:
  %this.addr = alloca ptr, align 8
  %g.addr = alloca ptr, align 8
  %e.addr = alloca i32, align 4
  %ref.tmp = alloca %class.s_integer, align 4
  store ptr %this, ptr %this.addr, align 8
  store ptr %g, ptr %g.addr, align 8
  store i32 %e, ptr %e.addr, align 4
  %this1 = load ptr, ptr %this.addr, align 8
  %0 = load ptr, ptr %g.addr, align 8
  %1 = load i32, ptr %e.addr, align 4
  %call = call noundef zeroext i1 @_ZNK3smt24theory_special_relations17is_neighbour_edgeERKNS0_5graphEi(ptr noundef nonnull align 8 dereferenceable(145) %this1, ptr noundef nonnull align 8 dereferenceable(368) %0, i32 noundef %1)
  br i1 %call, label %land.rhs, label %land.end

land.rhs:                                         ; preds = %entry
  %2 = load ptr, ptr %g.addr, align 8
  %3 = load i32, ptr %e.addr, align 4
  %call2 = call noundef nonnull align 4 dereferenceable(4) ptr @_ZNK8dl_graphIN3smt24theory_special_relations7int_extEE10get_weightEi(ptr noundef nonnull align 8 dereferenceable(368) %2, i32 noundef %3)
  call void @_ZN9s_integerC2Ei(ptr noundef nonnull align 4 dereferenceable(4) %ref.tmp, i32 noundef 0)
  %call3 = call noundef zeroext i1 @_ZneRK9s_integerS1_(ptr noundef nonnull align 4 dereferenceable(4) %call2, ptr noundef nonnull align 4 dereferenceable(4) %ref.tmp)
  br label %land.end

land.end:                                         ; preds = %land.rhs, %entry
  %4 = phi i1 [ false, %entry ], [ %call3, %land.rhs ]
  ret i1 %4
}