; Function Attrs: mustprogress nofree norecurse nosync nounwind willreturn memory(read, inaccessiblemem: none) uwtable
define hidden noundef zeroext i1 @_ZNK3smt24theory_special_relations24is_strict_neighbour_edgeERKNS0_5graphEi(ptr nocapture noundef nonnull readnone align 8 dereferenceable(145) %this, ptr nocapture noundef nonnull readonly align 8 dereferenceable(368) %g, i32 noundef %e) local_unnamed_addr #12 align 2 {
entry:
  %m_edges.i.i = getelementptr inbounds i8, ptr %g, i64 40
  %0 = load ptr, ptr %m_edges.i.i, align 8
  %idxprom.i.i.i = zext i32 %e to i64
  %m_enabled.i.i.i = getelementptr inbounds %class.dl_edge, ptr %0, i64 %idxprom.i.i.i, i32 5
  %1 = load i8, ptr %m_enabled.i.i.i, align 8
  %2 = and i8 %1, 1
  %tobool.i.i.not.i = icmp eq i8 %2, 0
  br i1 %tobool.i.i.not.i, label %land.end, label %_ZNK3smt24theory_special_relations17is_neighbour_edgeERKNS0_5graphEi.exit

_ZNK3smt24theory_special_relations17is_neighbour_edgeERKNS0_5graphEi.exit: ; preds = %entry
  %arrayidx.i.i.i = getelementptr inbounds %class.dl_edge, ptr %0, i64 %idxprom.i.i.i
  %3 = load i32, ptr %arrayidx.i.i.i, align 8
  %m_assignment.i.i = getelementptr inbounds i8, ptr %g, i64 24
  %4 = load ptr, ptr %m_assignment.i.i, align 8
  %idxprom.i.i9.i = zext i32 %3 to i64
  %arrayidx.i.i10.i = getelementptr inbounds %class.s_integer, ptr %4, i64 %idxprom.i.i9.i
  %retval.sroa.0.0.copyload.i.i = load i32, ptr %arrayidx.i.i10.i, align 4
  %sub.i.i.i = add nsw i32 %retval.sroa.0.0.copyload.i.i, -1
  %m_target.i.i.i = getelementptr inbounds %class.dl_edge, ptr %0, i64 %idxprom.i.i.i, i32 1
  %5 = load i32, ptr %m_target.i.i.i, align 4
  %idxprom.i.i14.i = zext i32 %5 to i64
  %arrayidx.i.i15.i = getelementptr inbounds %class.s_integer, ptr %4, i64 %idxprom.i.i14.i
  %retval.sroa.0.0.copyload.i16.i = load i32, ptr %arrayidx.i.i15.i, align 4
  %cmp.i.i = icmp eq i32 %sub.i.i.i, %retval.sroa.0.0.copyload.i16.i
  br i1 %cmp.i.i, label %land.rhs, label %land.end

land.rhs:                                         ; preds = %_ZNK3smt24theory_special_relations17is_neighbour_edgeERKNS0_5graphEi.exit
  %m_weight.i.i = getelementptr inbounds %class.dl_edge, ptr %0, i64 %idxprom.i.i.i, i32 2
  %6 = load i32, ptr %m_weight.i.i, align 4
  %cmp.i.i3 = icmp ne i32 %6, 0
  br label %land.end

land.end:                                         ; preds = %entry, %land.rhs, %_ZNK3smt24theory_special_relations17is_neighbour_edgeERKNS0_5graphEi.exit
  %7 = phi i1 [ false, %_ZNK3smt24theory_special_relations17is_neighbour_edgeERKNS0_5graphEi.exit ], [ %cmp.i.i3, %land.rhs ], [ false, %entry ]
  ret i1 %7
}